target datalayout = "e-m:e-p270:32:32-p271:32:32-p272:64:64-i64:64-i128:128-f80:128-n8:16:32:64-S128"
target triple = "x86_64-pc-linux-gnu"

%struct.ParallelSlotArray = type { i32, ptr, ptr, i8, ptr, [0 x %struct.ParallelSlot] }
%struct.ParallelSlot = type { ptr, i8, ptr, ptr }

; Function Attrs: nounwind uwtable
define internal i32 @find_unconnected_slot(ptr noundef %0) #0 {
  %2 = alloca i32, align 4
  %3 = alloca ptr, align 8
  %4 = alloca i32, align 4
  %5 = alloca i32, align 4
  store ptr %0, ptr %3, align 8
  call void @llvm.lifetime.start.p0(i64 4, ptr %4) #8
  store i32 0, ptr %4, align 4
  br label %6

6:                                                ; preds = %34, %1
  %7 = load i32, ptr %4, align 4
  %8 = load ptr, ptr %3, align 8
  %9 = getelementptr inbounds nuw %struct.ParallelSlotArray, ptr %8, i32 0, i32 0
  %10 = load i32, ptr %9, align 8
  %11 = icmp slt i32 %7, %10
  br i1 %11, label %12, label %37

12:                                               ; preds = %6
  %13 = load ptr, ptr %3, align 8
  %14 = getelementptr inbounds nuw %struct.ParallelSlotArray, ptr %13, i32 0, i32 5
  %15 = load i32, ptr %4, align 4
  %16 = sext i32 %15 to i64
  %17 = getelementptr inbounds [0 x %struct.ParallelSlot], ptr %14, i64 0, i64 %16
  %18 = getelementptr inbounds nuw %struct.ParallelSlot, ptr %17, i32 0, i32 1
  %19 = load i8, ptr %18, align 8, !range !4, !noundef !5
  %20 = trunc i8 %19 to i1
  br i1 %20, label %21, label %22

21:                                               ; preds = %12
  br label %34

22:                                               ; preds = %12
  %23 = load ptr, ptr %3, align 8
  %24 = getelementptr inbounds nuw %struct.ParallelSlotArray, ptr %23, i32 0, i32 5
  %25 = load i32, ptr %4, align 4
  %26 = sext i32 %25 to i64
  %27 = getelementptr inbounds [0 x %struct.ParallelSlot], ptr %24, i64 0, i64 %26
  %28 = getelementptr inbounds nuw %struct.ParallelSlot, ptr %27, i32 0, i32 0
  %29 = load ptr, ptr %28, align 8
  %30 = icmp eq ptr %29, null
  br i1 %30, label %31, label %33

31:                                               ; preds = %22
  %32 = load i32, ptr %4, align 4
  store i32 %32, ptr %2, align 4
  store i32 1, ptr %5, align 4
  br label %38

33:                                               ; preds = %22
  br label %34

34:                                               ; preds = %33, %21
  %35 = load i32, ptr %4, align 4
  %36 = add i32 %35, 1
  store i32 %36, ptr %4, align 4
  br label %6, !llvm.loop !8

37:                                               ; preds = %6
  store i32 -1, ptr %2, align 4
  store i32 1, ptr %5, align 4
  br label %38

38:                                               ; preds = %37, %31
  call void @llvm.lifetime.end.p0(i64 4, ptr %4) #8
  %39 = load i32, ptr %2, align 4
  ret i32 %39
}

; Function Attrs: nounwind uwtable
define dso_local void @ParallelSlotsAdoptConn(ptr noundef %0, ptr noundef %1) #0 {
  %3 = alloca ptr, align 8
  %4 = alloca ptr, align 8
  %5 = alloca i32, align 4
  store ptr %0, ptr %3, align 8
  store ptr %1, ptr %4, align 8
  call void @llvm.lifetime.start.p0(i64 4, ptr %5) #8
  %6 = load ptr, ptr %3, align 8
  %7 = call i32 @find_unconnected_slot(ptr noundef %6)
  store i32 %7, ptr %5, align 4
  %8 = load i32, ptr %5, align 4
  %9 = icmp sge i32 %8, 0
  br i1 %9, label %10, label %18

10:                                               ; preds = %2
  %11 = load ptr, ptr %4, align 8
  %12 = load ptr, ptr %3, align 8
  %13 = getelementptr inbounds nuw %struct.ParallelSlotArray, ptr %12, i32 0, i32 5
  %14 = load i32, ptr %5, align 4
  %15 = sext i32 %14 to i64
  %16 = getelementptr inbounds [0 x %struct.ParallelSlot], ptr %13, i64 0, i64 %15
  %17 = getelementptr inbounds nuw %struct.ParallelSlot, ptr %16, i32 0, i32 0
  store ptr %11, ptr %17, align 8
  br label %20

18:                                               ; preds = %2
  %19 = load ptr, ptr %4, align 8
  call void @disconnectDatabase(ptr noundef %19)
  br label %20

20:                                               ; preds = %18, %10
  call void @llvm.lifetime.end.p0(i64 4, ptr %5) #8
  ret void
}