; Function Attrs: nounwind uwtable
define dso_local void @ParallelSlotsAdoptConn(ptr noundef captures(none) %0, ptr noundef %1) local_unnamed_addr #0 {
  %3 = load i32, ptr %0, align 8
  %4 = icmp sgt i32 %3, 0
  br i1 %4, label %.lr.ph.i, label %find_unconnected_slot.exit.thread

.lr.ph.i:                                         ; preds = %2
  %5 = getelementptr inbounds nuw i8, ptr %0, i64 40
  %wide.trip.count.i = zext nneg i32 %3 to i64
  br label %6

6:                                                ; preds = %14, %.lr.ph.i
  %indvars.iv.i = phi i64 [ 0, %.lr.ph.i ], [ %indvars.iv.next.i, %14 ]
  %7 = getelementptr inbounds nuw [0 x %struct.ParallelSlot], ptr %5, i64 0, i64 %indvars.iv.i
  %8 = getelementptr inbounds nuw i8, ptr %7, i64 8
  %9 = load i8, ptr %8, align 8, !range !4, !noundef !5
  %10 = trunc nuw i8 %9 to i1
  br i1 %10, label %14, label %11

11:                                               ; preds = %6
  %12 = load ptr, ptr %7, align 8
  %13 = icmp eq ptr %12, null
  br i1 %13, label %find_unconnected_slot.exit, label %14

14:                                               ; preds = %11, %6
  %indvars.iv.next.i = add nuw nsw i64 %indvars.iv.i, 1
  %exitcond.not.i = icmp eq i64 %indvars.iv.next.i, %wide.trip.count.i
  br i1 %exitcond.not.i, label %find_unconnected_slot.exit.thread, label %6, !llvm.loop !8

find_unconnected_slot.exit:                       ; preds = %11
  %15 = and i64 %indvars.iv.i, 4294967295
  %16 = getelementptr inbounds nuw [0 x %struct.ParallelSlot], ptr %5, i64 0, i64 %15
  store ptr %1, ptr %16, align 8
  br label %17

find_unconnected_slot.exit.thread:                ; preds = %14, %2
  tail call void @disconnectDatabase(ptr noundef %1) #9
  br label %17

17:                                               ; preds = %find_unconnected_slot.exit.thread, %find_unconnected_slot.exit
  ret void
}